; ModuleID = '52/1251.c'
source_filename = "52/1251.c"
target datalayout = "e-m:e-p270:32:32-p271:32:32-p272:64:64-i64:64-f80:128-n8:16:32:64-S128"
target triple = "x86_64-pc-linux-gnu"

@.str = private unnamed_addr constant [5 x i8] c"%d%d\00", align 1
@.str.1 = private unnamed_addr constant [3 x i8] c"%d\00", align 1
@.str.2 = private unnamed_addr constant [4 x i8] c"%d \00", align 1

; Function Attrs: noinline nounwind uwtable
define dso_local void @main() #0 {
  %1 = alloca i32, align 4
  %2 = alloca i32, align 4
  %3 = alloca i32, align 4
  %4 = alloca i32, align 4
  %5 = alloca [101 x i32], align 16
  %6 = call i32 (i8*, ...) @__isoc99_scanf(i8* getelementptr inbounds ([5 x i8], [5 x i8]* @.str, i64 0, i64 0), i32* %1, i32* %2)
  store i32 0, i32* %3, align 4
  br label %7

7:                                                ; preds = %16, %0
  %8 = load i32, i32* %3, align 4
  %9 = load i32, i32* %1, align 4
  %10 = icmp slt i32 %8, %9
  br i1 %10, label %11, label %19

11:                                               ; preds = %7
  %12 = load i32, i32* %3, align 4
  %13 = sext i32 %12 to i64
  %14 = getelementptr inbounds [101 x i32], [101 x i32]* %5, i64 0, i64 %13
  %15 = call i32 (i8*, ...) @__isoc99_scanf(i8* getelementptr inbounds ([3 x i8], [3 x i8]* @.str.1, i64 0, i64 0), i32* %14)
  br label %16

16:                                               ; preds = %11
  %17 = load i32, i32* %3, align 4
  %18 = add nsw i32 %17, 1
  store i32 %18, i32* %3, align 4
  br label %7

19:                                               ; preds = %7
  store i32 0, i32* %3, align 4
  br label %20

20:                                               ; preds = %41, %19
  %21 = load i32, i32* %3, align 4
  %22 = load i32, i32* %2, align 4
  %23 = icmp ne i32 %21, %22
  br i1 %23, label %24, label %49

24:                                               ; preds = %20
  %25 = load i32, i32* %1, align 4
  store i32 %25, i32* %4, align 4
  br label %26

26:                                               ; preds = %38, %24
  %27 = load i32, i32* %4, align 4
  %28 = icmp sgt i32 %27, 0
  br i1 %28, label %29, label %41

29:                                               ; preds = %26
  %30 = load i32, i32* %4, align 4
  %31 = sub nsw i32 %30, 1
  %32 = sext i32 %31 to i64
  %33 = getelementptr inbounds [101 x i32], [101 x i32]* %5, i64 0, i64 %32
  %34 = load i32, i32* %33, align 4
  %35 = load i32, i32* %4, align 4
  %36 = sext i32 %35 to i64
  %37 = getelementptr inbounds [101 x i32], [101 x i32]* %5, i64 0, i64 %36
  store i32 %34, i32* %37, align 4
  br label %38

38:                                               ; preds = %29
  %39 = load i32, i32* %4, align 4
  %40 = add nsw i32 %39, -1
  store i32 %40, i32* %4, align 4
  br label %26

41:                                               ; preds = %26
  %42 = load i32, i32* %1, align 4
  %43 = sext i32 %42 to i64
  %44 = getelementptr inbounds [101 x i32], [101 x i32]* %5, i64 0, i64 %43
  %45 = load i32, i32* %44, align 4
  %46 = getelementptr inbounds [101 x i32], [101 x i32]* %5, i64 0, i64 0
  store i32 %45, i32* %46, align 16
  %47 = load i32, i32* %3, align 4
  %48 = add nsw i32 %47, 1
  store i32 %48, i32* %3, align 4
  br label %20

49:                                               ; preds = %20
  store i32 0, i32* %3, align 4
  br label %50

50:                                               ; preds = %61, %49
  %51 = load i32, i32* %3, align 4
  %52 = load i32, i32* %1, align 4
  %53 = sub nsw i32 %52, 1
  %54 = icmp slt i32 %51, %53
  br i1 %54, label %55, label %64

55:                                               ; preds = %50
  %56 = load i32, i32* %3, align 4
  %57 = sext i32 %56 to i64
  %58 = getelementptr inbounds [101 x i32], [101 x i32]* %5, i64 0, i64 %57
  %59 = load i32, i32* %58, align 4
  %60 = call i32 (i8*, ...) @printf(i8* getelementptr inbounds ([4 x i8], [4 x i8]* @.str.2, i64 0, i64 0), i32 %59)
  br label %61

61:                                               ; preds = %55
  %62 = load i32, i32* %3, align 4
  %63 = add nsw i32 %62, 1
  store i32 %63, i32* %3, align 4
  br label %50

64:                                               ; preds = %50
  %65 = load i32, i32* %1, align 4
  %66 = sub nsw i32 %65, 1
  %67 = sext i32 %66 to i64
  %68 = getelementptr inbounds [101 x i32], [101 x i32]* %5, i64 0, i64 %67
  %69 = load i32, i32* %68, align 4
  %70 = call i32 (i8*, ...) @printf(i8* getelementptr inbounds ([3 x i8], [3 x i8]* @.str.1, i64 0, i64 0), i32 %69)
  ret void
}

declare dso_local i32 @__isoc99_scanf(i8*, ...) #1

declare dso_local i32 @printf(i8*, ...) #1


!llvm.module.flags = !{!0}
!llvm.ident = !{!1}

!0 = !{i32 1, !"wchar_size", i32 4}
!1 = !{!"clang version 10.0.0-4ubuntu1 "}
